
I-AND-01.riscv:     file format elf32-littleriscv

Sections:
Idx Name          Size      VMA       LMA       File off  Algn
  0 .text.init    00000294  00000200  00000200  00000200  2**4
                  CONTENTS, ALLOC, LOAD, READONLY, CODE
  1 .io_buf       00000090  00006000  00006000  00001000  2**4
                  CONTENTS, ALLOC, LOAD, READONLY, DATA
  2 .riscv.attributes 0000001a  00000000  00000000  00001090  2**0
                  CONTENTS, READONLY

Disassembly of section .text.init:

00000200 <_start>:
 200:	00006297          	auipc	t0,0x6
 204:	e0028293          	addi	t0,t0,-512 # 6000 <codasip_signature_start>
 208:	fff00f93          	li	t6,-1
 20c:	00000813          	li	a6,0
 210:	010ff033          	and	zero,t6,a6
 214:	0002a023          	sw	zero,0(t0)
 218:	00100f13          	li	t5,1
 21c:	80100793          	li	a5,-2047
 220:	00ff70b3          	and	ra,t5,a5
 224:	0012a223          	sw	ra,4(t0)
 228:	00000e93          	li	t4,0
 22c:	fff00713          	li	a4,-1
 230:	00eef133          	and	sp,t4,a4
 234:	0022a423          	sw	sp,8(t0)
 238:	7ff00e13          	li	t3,2047
 23c:	fffff6b7          	lui	a3,0xfffff
 240:	dcc68693          	addi	a3,a3,-564 # ffffedcc <_end+0xffff8d3c>
 244:	00de71b3          	and	gp,t3,a3
 248:	0032a623          	sw	gp,12(t0)
 24c:	00000d93          	li	s11,0
 250:	80000637          	lui	a2,0x80000
 254:	00cdf233          	and	tp,s11,a2
 258:	0042a823          	sw	tp,16(t0)
 25c:	00006097          	auipc	ra,0x6
 260:	db808093          	addi	ra,ra,-584 # 6014 <test_2_res>
 264:	00001d37          	lui	s10,0x1
 268:	800d0d13          	addi	s10,s10,-2048 # 800 <_tls_data+0x36c>
 26c:	000015b7          	lui	a1,0x1
 270:	23458593          	addi	a1,a1,564 # 1234 <__global_pointer$+0x5a0>
 274:	00bd72b3          	and	t0,s10,a1
 278:	0050a023          	sw	t0,0(ra)
 27c:	07654cb7          	lui	s9,0x7654
 280:	321c8c93          	addi	s9,s9,801 # 7654321 <_end+0x764e291>
 284:	fff00513          	li	a0,-1
 288:	00acf333          	and	t1,s9,a0
 28c:	0060a223          	sw	t1,4(ra)
 290:	80000c37          	lui	s8,0x80000
 294:	fffc0c13          	addi	s8,s8,-1 # 7fffffff <_end+0x7fff9f6f>
 298:	00100493          	li	s1,1
 29c:	009c73b3          	and	t2,s8,s1
 2a0:	0070a423          	sw	t2,8(ra)
 2a4:	00100b93          	li	s7,1
 2a8:	80000437          	lui	s0,0x80000
 2ac:	fff40413          	addi	s0,s0,-1 # 7fffffff <_end+0x7fff9f6f>
 2b0:	008bf433          	and	s0,s7,s0
 2b4:	0080a623          	sw	s0,12(ra)
 2b8:	fff00b13          	li	s6,-1
 2bc:	076543b7          	lui	t2,0x7654
 2c0:	32138393          	addi	t2,t2,801 # 7654321 <_end+0x764e291>
 2c4:	007b74b3          	and	s1,s6,t2
 2c8:	0090a823          	sw	s1,16(ra)
 2cc:	00006097          	auipc	ra,0x6
 2d0:	d5c08093          	addi	ra,ra,-676 # 6028 <test_3_res>
 2d4:	00001ab7          	lui	s5,0x1
 2d8:	234a8a93          	addi	s5,s5,564 # 1234 <__global_pointer$+0x5a0>
 2dc:	00001337          	lui	t1,0x1
 2e0:	80030313          	addi	t1,t1,-2048 # 800 <_tls_data+0x36c>
 2e4:	006af533          	and	a0,s5,t1
 2e8:	00a0a023          	sw	a0,0(ra)
 2ec:	80000a37          	lui	s4,0x80000
 2f0:	00000293          	li	t0,0
 2f4:	005a75b3          	and	a1,s4,t0
 2f8:	00b0a223          	sw	a1,4(ra)
 2fc:	fffff9b7          	lui	s3,0xfffff
 300:	dcc98993          	addi	s3,s3,-564 # ffffedcc <_end+0xffff8d3c>
 304:	7ff00213          	li	tp,2047
 308:	0049f633          	and	a2,s3,tp
 30c:	00c0a423          	sw	a2,8(ra)
 310:	fff00913          	li	s2,-1
 314:	fff00193          	li	gp,-1
 318:	003976b3          	and	a3,s2,gp
 31c:	00d0a623          	sw	a3,12(ra)
 320:	80100893          	li	a7,-2047
 324:	00100113          	li	sp,1
 328:	0028f733          	and	a4,a7,sp
 32c:	00e0a823          	sw	a4,16(ra)
 330:	00006117          	auipc	sp,0x6
 334:	d0c10113          	addi	sp,sp,-756 # 603c <test_4_res>
 338:	00000813          	li	a6,0
 33c:	00000093          	li	ra,0
 340:	001877b3          	and	a5,a6,ra
 344:	00f12023          	sw	a5,0(sp)
 348:	fff00793          	li	a5,-1
 34c:	00000013          	nop
 350:	0007f833          	and	a6,a5,zero
 354:	01012223          	sw	a6,4(sp)
 358:	00100713          	li	a4,1
 35c:	80100f93          	li	t6,-2047
 360:	01f778b3          	and	a7,a4,t6
 364:	01112423          	sw	a7,8(sp)
 368:	00000693          	li	a3,0
 36c:	fff00f13          	li	t5,-1
 370:	01e6f933          	and	s2,a3,t5
 374:	01212623          	sw	s2,12(sp)
 378:	7ff00613          	li	a2,2047
 37c:	fffffeb7          	lui	t4,0xfffff
 380:	dcce8e93          	addi	t4,t4,-564 # ffffedcc <_end+0xffff8d3c>
 384:	01d679b3          	and	s3,a2,t4
 388:	01312823          	sw	s3,16(sp)
 38c:	00006097          	auipc	ra,0x6
 390:	cc408093          	addi	ra,ra,-828 # 6050 <test_5_res>
 394:	00000593          	li	a1,0
 398:	80000e37          	lui	t3,0x80000
 39c:	01c5fa33          	and	s4,a1,t3
 3a0:	0140a023          	sw	s4,0(ra)
 3a4:	00001537          	lui	a0,0x1
 3a8:	80050513          	addi	a0,a0,-2048 # 800 <_tls_data+0x36c>
 3ac:	00001db7          	lui	s11,0x1
 3b0:	234d8d93          	addi	s11,s11,564 # 1234 <__global_pointer$+0x5a0>
 3b4:	01b57ab3          	and	s5,a0,s11
 3b8:	0150a223          	sw	s5,4(ra)
 3bc:	076544b7          	lui	s1,0x7654
 3c0:	32148493          	addi	s1,s1,801 # 7654321 <_end+0x764e291>
 3c4:	fff00d13          	li	s10,-1
 3c8:	01a4fb33          	and	s6,s1,s10
 3cc:	0160a423          	sw	s6,8(ra)
 3d0:	80000437          	lui	s0,0x80000
 3d4:	fff40413          	addi	s0,s0,-1 # 7fffffff <_end+0x7fff9f6f>
 3d8:	00100c93          	li	s9,1
 3dc:	01947bb3          	and	s7,s0,s9
 3e0:	0170a623          	sw	s7,12(ra)
 3e4:	00100393          	li	t2,1
 3e8:	80000c37          	lui	s8,0x80000
 3ec:	fffc0c13          	addi	s8,s8,-1 # 7fffffff <_end+0x7fff9f6f>
 3f0:	0183fc33          	and	s8,t2,s8
 3f4:	0180a823          	sw	s8,16(ra)
 3f8:	00006097          	auipc	ra,0x6
 3fc:	c6c08093          	addi	ra,ra,-916 # 6064 <test_6_res>
 400:	fff00313          	li	t1,-1
 404:	07654bb7          	lui	s7,0x7654
 408:	321b8b93          	addi	s7,s7,801 # 7654321 <_end+0x764e291>
 40c:	01737cb3          	and	s9,t1,s7
 410:	0190a023          	sw	s9,0(ra)
 414:	000012b7          	lui	t0,0x1
 418:	23428293          	addi	t0,t0,564 # 1234 <__global_pointer$+0x5a0>
 41c:	00001b37          	lui	s6,0x1
 420:	800b0b13          	addi	s6,s6,-2048 # 800 <_tls_data+0x36c>
 424:	0162fd33          	and	s10,t0,s6
 428:	01a0a223          	sw	s10,4(ra)
 42c:	80000237          	lui	tp,0x80000
 430:	00000a93          	li	s5,0
 434:	01527db3          	and	s11,tp,s5
 438:	01b0a423          	sw	s11,8(ra)
 43c:	fffff1b7          	lui	gp,0xfffff
 440:	dcc18193          	addi	gp,gp,-564 # ffffedcc <_end+0xffff8d3c>
 444:	7ff00a13          	li	s4,2047
 448:	0141fe33          	and	t3,gp,s4
 44c:	01c0a623          	sw	t3,12(ra)
 450:	fff00113          	li	sp,-1
 454:	fff00993          	li	s3,-1
 458:	01317eb3          	and	t4,sp,s3
 45c:	01d0a823          	sw	t4,16(ra)
 460:	00006117          	auipc	sp,0x6
 464:	c1810113          	addi	sp,sp,-1000 # 6078 <test_7_res>
 468:	80100093          	li	ra,-2047
 46c:	00100913          	li	s2,1
 470:	0120ff33          	and	t5,ra,s2
 474:	01e12023          	sw	t5,0(sp)
 478:	00000013          	nop
 47c:	00000893          	li	a7,0
 480:	01107fb3          	and	t6,zero,a7
 484:	01f12223          	sw	t6,4(sp)

00000488 <halt>:
 488:	0000006f          	j	488 <halt>
 48c:	0000                	unimp
 48e:	0000                	unimp
 490:	0000                	unimp
 492:	0000                	unimp

Disassembly of section .io_buf:

00006000 <codasip_signature_start>:
    6000:	ffff                	0xffff
    6002:	ffff                	0xffff
    6004:	ffff                	0xffff
    6006:	ffff                	0xffff
    6008:	ffff                	0xffff
    600a:	ffff                	0xffff
    600c:	ffff                	0xffff
    600e:	ffff                	0xffff
    6010:	ffff                	0xffff
    6012:	ffff                	0xffff

00006014 <test_2_res>:
    6014:	ffff                	0xffff
    6016:	ffff                	0xffff
    6018:	ffff                	0xffff
    601a:	ffff                	0xffff
    601c:	ffff                	0xffff
    601e:	ffff                	0xffff
    6020:	ffff                	0xffff
    6022:	ffff                	0xffff
    6024:	ffff                	0xffff
    6026:	ffff                	0xffff

00006028 <test_3_res>:
    6028:	ffff                	0xffff
    602a:	ffff                	0xffff
    602c:	ffff                	0xffff
    602e:	ffff                	0xffff
    6030:	ffff                	0xffff
    6032:	ffff                	0xffff
    6034:	ffff                	0xffff
    6036:	ffff                	0xffff
    6038:	ffff                	0xffff
    603a:	ffff                	0xffff

0000603c <test_4_res>:
    603c:	ffff                	0xffff
    603e:	ffff                	0xffff
    6040:	ffff                	0xffff
    6042:	ffff                	0xffff
    6044:	ffff                	0xffff
    6046:	ffff                	0xffff
    6048:	ffff                	0xffff
    604a:	ffff                	0xffff
    604c:	ffff                	0xffff
    604e:	ffff                	0xffff

00006050 <test_5_res>:
    6050:	ffff                	0xffff
    6052:	ffff                	0xffff
    6054:	ffff                	0xffff
    6056:	ffff                	0xffff
    6058:	ffff                	0xffff
    605a:	ffff                	0xffff
    605c:	ffff                	0xffff
    605e:	ffff                	0xffff
    6060:	ffff                	0xffff
    6062:	ffff                	0xffff

00006064 <test_6_res>:
    6064:	ffff                	0xffff
    6066:	ffff                	0xffff
    6068:	ffff                	0xffff
    606a:	ffff                	0xffff
    606c:	ffff                	0xffff
    606e:	ffff                	0xffff
    6070:	ffff                	0xffff
    6072:	ffff                	0xffff
    6074:	ffff                	0xffff
    6076:	ffff                	0xffff

00006078 <test_7_res>:
    6078:	ffff                	0xffff
    607a:	ffff                	0xffff
    607c:	ffff                	0xffff
    607e:	ffff                	0xffff
    6080:	ffff                	0xffff
    6082:	ffff                	0xffff
    6084:	ffff                	0xffff
    6086:	ffff                	0xffff
    6088:	ffff                	0xffff
    608a:	ffff                	0xffff
    608c:	0000                	unimp
    608e:	0000                	unimp
