
I-LW-01.riscv:     file format elf32-littleriscv

Sections:
Idx Name          Size      VMA       LMA       File off  Algn
  0 .text.init    000001c4  00000200  00000200  00000200  2**4
                  CONTENTS, ALLOC, LOAD, READONLY, CODE
  1 .data         00000030  000003d0  000003d0  000003d0  2**4
                  CONTENTS, ALLOC, LOAD, DATA
  2 .io_buf       00000090  00006000  00006000  00001000  2**4
                  CONTENTS, ALLOC, LOAD, READONLY, DATA
  3 .riscv.attributes 0000001a  00000000  00000000  00001090  2**0
                  CONTENTS, READONLY

Disassembly of section .text.init:

00000200 <_start>:
 200:	00006297          	auipc	t0,0x6
 204:	e0028293          	addi	t0,t0,-512 # 6000 <codasip_signature_start>
 208:	3e800f93          	li	t6,1000
 20c:	000fa003          	lw	zero,0(t6)
 210:	0002a023          	sw	zero,0(t0)
 214:	3e800f13          	li	t5,1000
 218:	000f2083          	lw	ra,0(t5)
 21c:	0012a223          	sw	ra,4(t0)
 220:	3e800e93          	li	t4,1000
 224:	000ea103          	lw	sp,0(t4)
 228:	0022a423          	sw	sp,8(t0)
 22c:	3e800e13          	li	t3,1000
 230:	ffce2183          	lw	gp,-4(t3)
 234:	0032a623          	sw	gp,12(t0)
 238:	3e800d93          	li	s11,1000
 23c:	000da203          	lw	tp,0(s11)
 240:	0042a823          	sw	tp,16(t0)
 244:	00006097          	auipc	ra,0x6
 248:	dd008093          	addi	ra,ra,-560 # 6014 <test_2_res>
 24c:	3e800d13          	li	s10,1000
 250:	004d2283          	lw	t0,4(s10)
 254:	0050a023          	sw	t0,0(ra)
 258:	3e800c93          	li	s9,1000
 25c:	000ca303          	lw	t1,0(s9)
 260:	0060a223          	sw	t1,4(ra)
 264:	3e800c13          	li	s8,1000
 268:	000c2383          	lw	t2,0(s8)
 26c:	0070a423          	sw	t2,8(ra)
 270:	3e800b93          	li	s7,1000
 274:	000ba403          	lw	s0,0(s7)
 278:	0080a623          	sw	s0,12(ra)
 27c:	3e800b13          	li	s6,1000
 280:	000b2483          	lw	s1,0(s6)
 284:	0090a823          	sw	s1,16(ra)
 288:	00006097          	auipc	ra,0x6
 28c:	da008093          	addi	ra,ra,-608 # 6028 <test_3_res>
 290:	3e800a93          	li	s5,1000
 294:	000aa503          	lw	a0,0(s5)
 298:	00a0a023          	sw	a0,0(ra)
 29c:	3e800a13          	li	s4,1000
 2a0:	ffca2583          	lw	a1,-4(s4)
 2a4:	00b0a223          	sw	a1,4(ra)
 2a8:	3e800993          	li	s3,1000
 2ac:	0009a603          	lw	a2,0(s3)
 2b0:	00c0a423          	sw	a2,8(ra)
 2b4:	3e800913          	li	s2,1000
 2b8:	00492683          	lw	a3,4(s2)
 2bc:	00d0a623          	sw	a3,12(ra)
 2c0:	3e800893          	li	a7,1000
 2c4:	0008a703          	lw	a4,0(a7)
 2c8:	00e0a823          	sw	a4,16(ra)
 2cc:	00006117          	auipc	sp,0x6
 2d0:	d7010113          	addi	sp,sp,-656 # 603c <test_4_res>
 2d4:	3e800813          	li	a6,1000
 2d8:	00082783          	lw	a5,0(a6)
 2dc:	00f12023          	sw	a5,0(sp)
 2e0:	3e800793          	li	a5,1000
 2e4:	0007a803          	lw	a6,0(a5)
 2e8:	01012223          	sw	a6,4(sp)
 2ec:	3e800713          	li	a4,1000
 2f0:	00072883          	lw	a7,0(a4)
 2f4:	01112423          	sw	a7,8(sp)
 2f8:	3e800693          	li	a3,1000
 2fc:	0006a903          	lw	s2,0(a3)
 300:	01212623          	sw	s2,12(sp)
 304:	3e800613          	li	a2,1000
 308:	ffc62983          	lw	s3,-4(a2)
 30c:	01312823          	sw	s3,16(sp)
 310:	00006097          	auipc	ra,0x6
 314:	d4008093          	addi	ra,ra,-704 # 6050 <test_5_res>
 318:	3e800593          	li	a1,1000
 31c:	0005aa03          	lw	s4,0(a1)
 320:	0140a023          	sw	s4,0(ra)
 324:	3e800513          	li	a0,1000
 328:	00452a83          	lw	s5,4(a0)
 32c:	0150a223          	sw	s5,4(ra)
 330:	3e800493          	li	s1,1000
 334:	0004ab03          	lw	s6,0(s1)
 338:	0160a423          	sw	s6,8(ra)
 33c:	3e800413          	li	s0,1000
 340:	00042b83          	lw	s7,0(s0)
 344:	0170a623          	sw	s7,12(ra)
 348:	3e800393          	li	t2,1000
 34c:	0003ac03          	lw	s8,0(t2)
 350:	0180a823          	sw	s8,16(ra)
 354:	00006097          	auipc	ra,0x6
 358:	d1008093          	addi	ra,ra,-752 # 6064 <test_6_res>
 35c:	3e800313          	li	t1,1000
 360:	00032c83          	lw	s9,0(t1)
 364:	0190a023          	sw	s9,0(ra)
 368:	3e800293          	li	t0,1000
 36c:	0002ad03          	lw	s10,0(t0)
 370:	01a0a223          	sw	s10,4(ra)
 374:	3e800213          	li	tp,1000
 378:	ffc22d83          	lw	s11,-4(tp) # fffffffc <_end+0xffff9f6c>
 37c:	01b0a423          	sw	s11,8(ra)
 380:	3e800193          	li	gp,1000
 384:	0001ae03          	lw	t3,0(gp) # c00 <__global_pointer$>
 388:	01c0a623          	sw	t3,12(ra)
 38c:	3e800113          	li	sp,1000
 390:	00412e83          	lw	t4,4(sp)
 394:	01d0a823          	sw	t4,16(ra)
 398:	00006117          	auipc	sp,0x6
 39c:	ce010113          	addi	sp,sp,-800 # 6078 <test_7_res>
 3a0:	3e800093          	li	ra,1000
 3a4:	0000af03          	lw	t5,0(ra)
 3a8:	01e12023          	sw	t5,0(sp)
 3ac:	3e800093          	li	ra,1000
 3b0:	0000af83          	lw	t6,0(ra)
 3b4:	01f12223          	sw	t6,4(sp)

000003b8 <halt>:
 3b8:	0000006f          	j	3b8 <halt>
 3bc:	0000                	unimp
 3be:	0000                	unimp
 3c0:	0000                	unimp
 3c2:	0000                	unimp

Disassembly of section .io_buf:

00006000 <codasip_signature_start>:
    6000:	ffff                	0xffff
    6002:	ffff                	0xffff
    6004:	ffff                	0xffff
    6006:	ffff                	0xffff
    6008:	ffff                	0xffff
    600a:	ffff                	0xffff
    600c:	ffff                	0xffff
    600e:	ffff                	0xffff
    6010:	ffff                	0xffff
    6012:	ffff                	0xffff

00006014 <test_2_res>:
    6014:	ffff                	0xffff
    6016:	ffff                	0xffff
    6018:	ffff                	0xffff
    601a:	ffff                	0xffff
    601c:	ffff                	0xffff
    601e:	ffff                	0xffff
    6020:	ffff                	0xffff
    6022:	ffff                	0xffff
    6024:	ffff                	0xffff
    6026:	ffff                	0xffff

00006028 <test_3_res>:
    6028:	ffff                	0xffff
    602a:	ffff                	0xffff
    602c:	ffff                	0xffff
    602e:	ffff                	0xffff
    6030:	ffff                	0xffff
    6032:	ffff                	0xffff
    6034:	ffff                	0xffff
    6036:	ffff                	0xffff
    6038:	ffff                	0xffff
    603a:	ffff                	0xffff

0000603c <test_4_res>:
    603c:	ffff                	0xffff
    603e:	ffff                	0xffff
    6040:	ffff                	0xffff
    6042:	ffff                	0xffff
    6044:	ffff                	0xffff
    6046:	ffff                	0xffff
    6048:	ffff                	0xffff
    604a:	ffff                	0xffff
    604c:	ffff                	0xffff
    604e:	ffff                	0xffff

00006050 <test_5_res>:
    6050:	ffff                	0xffff
    6052:	ffff                	0xffff
    6054:	ffff                	0xffff
    6056:	ffff                	0xffff
    6058:	ffff                	0xffff
    605a:	ffff                	0xffff
    605c:	ffff                	0xffff
    605e:	ffff                	0xffff
    6060:	ffff                	0xffff
    6062:	ffff                	0xffff

00006064 <test_6_res>:
    6064:	ffff                	0xffff
    6066:	ffff                	0xffff
    6068:	ffff                	0xffff
    606a:	ffff                	0xffff
    606c:	ffff                	0xffff
    606e:	ffff                	0xffff
    6070:	ffff                	0xffff
    6072:	ffff                	0xffff
    6074:	ffff                	0xffff
    6076:	ffff                	0xffff

00006078 <test_7_res>:
    6078:	ffff                	0xffff
    607a:	ffff                	0xffff
    607c:	ffff                	0xffff
    607e:	ffff                	0xffff
    6080:	ffff                	0xffff
    6082:	ffff                	0xffff
    6084:	ffff                	0xffff
    6086:	ffff                	0xffff
    6088:	ffff                	0xffff
    608a:	ffff                	0xffff
    608c:	0000                	unimp
    608e:	0000                	unimp
