
I-SH-01.riscv:     file format elf32-littleriscv

Sections:
Idx Name          Size      VMA       LMA       File off  Algn
  0 .text.init    00000264  00000200  00000200  00000200  2**4
                  CONTENTS, ALLOC, LOAD, READONLY, CODE
  1 .io_buf       00000090  00006000  00006000  00001000  2**4
                  CONTENTS, ALLOC, LOAD, READONLY, DATA
  2 .riscv.attributes 0000001a  00000000  00000000  00001090  2**0
                  CONTENTS, READONLY

Disassembly of section .text.init:

00000200 <_start>:
 200:	00006297          	auipc	t0,0x6
 204:	e0428293          	addi	t0,t0,-508 # 6004 <test_1_res>
 208:	00029023          	sh	zero,0(t0)
 20c:	fff00813          	li	a6,-1
 210:	00028f93          	mv	t6,t0
 214:	010f9023          	sh	a6,0(t6)
 218:	fe029f23          	sh	zero,-2(t0)
 21c:	00100793          	li	a5,1
 220:	00028f13          	mv	t5,t0
 224:	feff1f23          	sh	a5,-2(t5)
 228:	00029123          	sh	zero,2(t0)
 22c:	00000713          	li	a4,0
 230:	00028e93          	mv	t4,t0
 234:	00ee9123          	sh	a4,2(t4)
 238:	fe029e23          	sh	zero,-4(t0)
 23c:	7ff00693          	li	a3,2047
 240:	00028e13          	mv	t3,t0
 244:	fede1e23          	sh	a3,-4(t3)
 248:	00029123          	sh	zero,2(t0)
 24c:	00000613          	li	a2,0
 250:	00028d93          	mv	s11,t0
 254:	00cd9123          	sh	a2,2(s11)
 258:	00006097          	auipc	ra,0x6
 25c:	dc008093          	addi	ra,ra,-576 # 6018 <test_2_res>
 260:	00009223          	sh	zero,4(ra)
 264:	000015b7          	lui	a1,0x1
 268:	80058593          	addi	a1,a1,-2048 # 800 <_tls_data+0x39c>
 26c:	00008d13          	mv	s10,ra
 270:	00bd1223          	sh	a1,4(s10)
 274:	00009023          	sh	zero,0(ra)
 278:	07654537          	lui	a0,0x7654
 27c:	32150513          	addi	a0,a0,801 # 7654321 <_end+0x764e291>
 280:	00008c93          	mv	s9,ra
 284:	00ac9023          	sh	a0,0(s9)
 288:	00009023          	sh	zero,0(ra)
 28c:	800004b7          	lui	s1,0x80000
 290:	fff48493          	addi	s1,s1,-1 # 7fffffff <_end+0x7fff9f6f>
 294:	00008c13          	mv	s8,ra
 298:	009c1023          	sh	s1,0(s8)
 29c:	00009023          	sh	zero,0(ra)
 2a0:	00100413          	li	s0,1
 2a4:	00008b93          	mv	s7,ra
 2a8:	008b9023          	sh	s0,0(s7)
 2ac:	fe009f23          	sh	zero,-2(ra)
 2b0:	fff00393          	li	t2,-1
 2b4:	00008b13          	mv	s6,ra
 2b8:	fe7b1f23          	sh	t2,-2(s6)
 2bc:	00006097          	auipc	ra,0x6
 2c0:	d7008093          	addi	ra,ra,-656 # 602c <test_3_res>
 2c4:	00009123          	sh	zero,2(ra)
 2c8:	00001337          	lui	t1,0x1
 2cc:	23430313          	addi	t1,t1,564 # 1234 <__global_pointer$+0x5d0>
 2d0:	00008a93          	mv	s5,ra
 2d4:	006a9123          	sh	t1,2(s5)
 2d8:	fe009e23          	sh	zero,-4(ra)
 2dc:	800002b7          	lui	t0,0x80000
 2e0:	00008a13          	mv	s4,ra
 2e4:	fe5a1e23          	sh	t0,-4(s4)
 2e8:	00009123          	sh	zero,2(ra)
 2ec:	fffff237          	lui	tp,0xfffff
 2f0:	dcc20213          	addi	tp,tp,-564 # ffffedcc <_end+0xffff8d3c>
 2f4:	00008993          	mv	s3,ra
 2f8:	00499123          	sh	tp,2(s3)
 2fc:	00009223          	sh	zero,4(ra)
 300:	fff00193          	li	gp,-1
 304:	00008913          	mv	s2,ra
 308:	00391223          	sh	gp,4(s2)
 30c:	00009023          	sh	zero,0(ra)
 310:	80100113          	li	sp,-2047
 314:	00008893          	mv	a7,ra
 318:	00289023          	sh	sp,0(a7)
 31c:	00006117          	auipc	sp,0x6
 320:	d2410113          	addi	sp,sp,-732 # 6040 <test_4_res>
 324:	00011023          	sh	zero,0(sp)
 328:	00000093          	li	ra,0
 32c:	00010813          	mv	a6,sp
 330:	00181023          	sh	ra,0(a6)
 334:	00011023          	sh	zero,0(sp)
 338:	fff00013          	li	zero,-1
 33c:	00010793          	mv	a5,sp
 340:	00079023          	sh	zero,0(a5)
 344:	fe011f23          	sh	zero,-2(sp)
 348:	00100f93          	li	t6,1
 34c:	00010713          	mv	a4,sp
 350:	fff71f23          	sh	t6,-2(a4)
 354:	00011123          	sh	zero,2(sp)
 358:	00000f13          	li	t5,0
 35c:	00010693          	mv	a3,sp
 360:	01e69123          	sh	t5,2(a3)
 364:	fe011e23          	sh	zero,-4(sp)
 368:	7ff00e93          	li	t4,2047
 36c:	00010613          	mv	a2,sp
 370:	ffd61e23          	sh	t4,-4(a2)
 374:	00006097          	auipc	ra,0x6
 378:	ce008093          	addi	ra,ra,-800 # 6054 <test_5_res>
 37c:	00009123          	sh	zero,2(ra)
 380:	00000e13          	li	t3,0
 384:	00008593          	mv	a1,ra
 388:	01c59123          	sh	t3,2(a1)
 38c:	00009223          	sh	zero,4(ra)
 390:	00001db7          	lui	s11,0x1
 394:	800d8d93          	addi	s11,s11,-2048 # 800 <_tls_data+0x39c>
 398:	00008513          	mv	a0,ra
 39c:	01b51223          	sh	s11,4(a0)
 3a0:	00009023          	sh	zero,0(ra)
 3a4:	07654d37          	lui	s10,0x7654
 3a8:	321d0d13          	addi	s10,s10,801 # 7654321 <_end+0x764e291>
 3ac:	00008493          	mv	s1,ra
 3b0:	01a49023          	sh	s10,0(s1)
 3b4:	00009023          	sh	zero,0(ra)
 3b8:	80000cb7          	lui	s9,0x80000
 3bc:	fffc8c93          	addi	s9,s9,-1 # 7fffffff <_end+0x7fff9f6f>
 3c0:	00008413          	mv	s0,ra
 3c4:	01941023          	sh	s9,0(s0)
 3c8:	00009023          	sh	zero,0(ra)
 3cc:	00100c13          	li	s8,1
 3d0:	00008393          	mv	t2,ra
 3d4:	01839023          	sh	s8,0(t2)
 3d8:	00006097          	auipc	ra,0x6
 3dc:	c9008093          	addi	ra,ra,-880 # 6068 <test_6_res>
 3e0:	fe009f23          	sh	zero,-2(ra)
 3e4:	fff00b93          	li	s7,-1
 3e8:	00008313          	mv	t1,ra
 3ec:	ff731f23          	sh	s7,-2(t1)
 3f0:	00009123          	sh	zero,2(ra)
 3f4:	00001b37          	lui	s6,0x1
 3f8:	234b0b13          	addi	s6,s6,564 # 1234 <__global_pointer$+0x5d0>
 3fc:	00008293          	mv	t0,ra
 400:	01629123          	sh	s6,2(t0) # 80000002 <_end+0x7fff9f72>
 404:	fe009e23          	sh	zero,-4(ra)
 408:	80000ab7          	lui	s5,0x80000
 40c:	00008213          	mv	tp,ra
 410:	ff521e23          	sh	s5,-4(tp) # fffffffc <_end+0xffff9f6c>
 414:	00009123          	sh	zero,2(ra)
 418:	fffffa37          	lui	s4,0xfffff
 41c:	dcca0a13          	addi	s4,s4,-564 # ffffedcc <_end+0xffff8d3c>
 420:	00008193          	mv	gp,ra
 424:	01419123          	sh	s4,2(gp) # c66 <__global_pointer$+0x2>
 428:	00009223          	sh	zero,4(ra)
 42c:	fff00993          	li	s3,-1
 430:	00008113          	mv	sp,ra
 434:	01311223          	sh	s3,4(sp)
 438:	00006117          	auipc	sp,0x6
 43c:	c4410113          	addi	sp,sp,-956 # 607c <test_7_res>
 440:	00011023          	sh	zero,0(sp)
 444:	80100913          	li	s2,-2047
 448:	00010093          	mv	ra,sp
 44c:	01209023          	sh	s2,0(ra)
 450:	00011023          	sh	zero,0(sp)
 454:	00000893          	li	a7,0
 458:	00010093          	mv	ra,sp
 45c:	01109023          	sh	a7,0(ra)

00000460 <halt>:
 460:	0000006f          	j	460 <halt>

Disassembly of section .io_buf:

00006000 <codasip_signature_start>:
    6000:	ffff                	0xffff
    6002:	ffff                	0xffff

00006004 <test_1_res>:
    6004:	ffff                	0xffff
    6006:	ffff                	0xffff
    6008:	ffff                	0xffff
    600a:	ffff                	0xffff
    600c:	ffff                	0xffff
    600e:	ffff                	0xffff
    6010:	ffff                	0xffff
    6012:	ffff                	0xffff
    6014:	ffff                	0xffff
    6016:	ffff                	0xffff

00006018 <test_2_res>:
    6018:	ffff                	0xffff
    601a:	ffff                	0xffff
    601c:	ffff                	0xffff
    601e:	ffff                	0xffff
    6020:	ffff                	0xffff
    6022:	ffff                	0xffff
    6024:	ffff                	0xffff
    6026:	ffff                	0xffff
    6028:	ffff                	0xffff
    602a:	ffff                	0xffff

0000602c <test_3_res>:
    602c:	ffff                	0xffff
    602e:	ffff                	0xffff
    6030:	ffff                	0xffff
    6032:	ffff                	0xffff
    6034:	ffff                	0xffff
    6036:	ffff                	0xffff
    6038:	ffff                	0xffff
    603a:	ffff                	0xffff
    603c:	ffff                	0xffff
    603e:	ffff                	0xffff

00006040 <test_4_res>:
    6040:	ffff                	0xffff
    6042:	ffff                	0xffff
    6044:	ffff                	0xffff
    6046:	ffff                	0xffff
    6048:	ffff                	0xffff
    604a:	ffff                	0xffff
    604c:	ffff                	0xffff
    604e:	ffff                	0xffff
    6050:	ffff                	0xffff
    6052:	ffff                	0xffff

00006054 <test_5_res>:
    6054:	ffff                	0xffff
    6056:	ffff                	0xffff
    6058:	ffff                	0xffff
    605a:	ffff                	0xffff
    605c:	ffff                	0xffff
    605e:	ffff                	0xffff
    6060:	ffff                	0xffff
    6062:	ffff                	0xffff
    6064:	ffff                	0xffff
    6066:	ffff                	0xffff

00006068 <test_6_res>:
    6068:	ffff                	0xffff
    606a:	ffff                	0xffff
    606c:	ffff                	0xffff
    606e:	ffff                	0xffff
    6070:	ffff                	0xffff
    6072:	ffff                	0xffff
    6074:	ffff                	0xffff
    6076:	ffff                	0xffff
    6078:	ffff                	0xffff
    607a:	ffff                	0xffff

0000607c <test_7_res>:
    607c:	ffff                	0xffff
    607e:	ffff                	0xffff
    6080:	ffff                	0xffff
    6082:	ffff                	0xffff
    6084:	ffff                	0xffff
    6086:	ffff                	0xffff
    6088:	ffff                	0xffff
    608a:	ffff                	0xffff
    608c:	ffff                	0xffff
    608e:	ffff                	0xffff
