
I-SRAI-01.riscv:     file format elf32-littleriscv

Sections:
Idx Name          Size      VMA       LMA       File off  Algn
  0 .text.init    000001e4  00000200  00000200  00000200  2**4
                  CONTENTS, ALLOC, LOAD, READONLY, CODE
  1 .io_buf       00000090  00006000  00006000  00001000  2**4
                  CONTENTS, ALLOC, LOAD, READONLY, DATA
  2 .riscv.attributes 0000001a  00000000  00000000  00001090  2**0
                  CONTENTS, READONLY

Disassembly of section .text.init:

00000200 <_start>:
 200:	00006297          	auipc	t0,0x6
 204:	e0028293          	addi	t0,t0,-512 # 6000 <codasip_signature_start>
 208:	fff00f93          	li	t6,-1
 20c:	400fd013          	srai	zero,t6,0x0
 210:	0002a023          	sw	zero,0(t0)
 214:	00100f13          	li	t5,1
 218:	400f5093          	srai	ra,t5,0x0
 21c:	0012a223          	sw	ra,4(t0)
 220:	00000e93          	li	t4,0
 224:	401ed113          	srai	sp,t4,0x1
 228:	0022a423          	sw	sp,8(t0)
 22c:	7ff00e13          	li	t3,2047
 230:	404e5193          	srai	gp,t3,0x4
 234:	0032a623          	sw	gp,12(t0)
 238:	00000d93          	li	s11,0
 23c:	408dd213          	srai	tp,s11,0x8
 240:	0042a823          	sw	tp,16(t0)
 244:	00006097          	auipc	ra,0x6
 248:	dd008093          	addi	ra,ra,-560 # 6014 <test_2_res>
 24c:	00001d37          	lui	s10,0x1
 250:	800d0d13          	addi	s10,s10,-2048 # 800 <_tls_data+0x41c>
 254:	41fd5293          	srai	t0,s10,0x1f
 258:	0050a023          	sw	t0,0(ra)
 25c:	07654cb7          	lui	s9,0x7654
 260:	321c8c93          	addi	s9,s9,801 # 7654321 <_end+0x764e291>
 264:	410cd313          	srai	t1,s9,0x10
 268:	0060a223          	sw	t1,4(ra)
 26c:	80000c37          	lui	s8,0x80000
 270:	fffc0c13          	addi	s8,s8,-1 # 7fffffff <_end+0x7fff9f6f>
 274:	401c5393          	srai	t2,s8,0x1
 278:	0070a423          	sw	t2,8(ra)
 27c:	00100b93          	li	s7,1
 280:	400bd413          	srai	s0,s7,0x0
 284:	0080a623          	sw	s0,12(ra)
 288:	fff00b13          	li	s6,-1
 28c:	400b5493          	srai	s1,s6,0x0
 290:	0090a823          	sw	s1,16(ra)
 294:	00006097          	auipc	ra,0x6
 298:	d9408093          	addi	ra,ra,-620 # 6028 <test_3_res>
 29c:	00001ab7          	lui	s5,0x1
 2a0:	234a8a93          	addi	s5,s5,564 # 1234 <__global_pointer$+0x650>
 2a4:	401ad513          	srai	a0,s5,0x1
 2a8:	00a0a023          	sw	a0,0(ra)
 2ac:	80000a37          	lui	s4,0x80000
 2b0:	404a5593          	srai	a1,s4,0x4
 2b4:	00b0a223          	sw	a1,4(ra)
 2b8:	fffff9b7          	lui	s3,0xfffff
 2bc:	dcc98993          	addi	s3,s3,-564 # ffffedcc <_end+0xffff8d3c>
 2c0:	4089d613          	srai	a2,s3,0x8
 2c4:	00c0a423          	sw	a2,8(ra)
 2c8:	fff00913          	li	s2,-1
 2cc:	41f95693          	srai	a3,s2,0x1f
 2d0:	00d0a623          	sw	a3,12(ra)
 2d4:	80100893          	li	a7,-2047
 2d8:	4108d713          	srai	a4,a7,0x10
 2dc:	00e0a823          	sw	a4,16(ra)
 2e0:	00006117          	auipc	sp,0x6
 2e4:	d5c10113          	addi	sp,sp,-676 # 603c <test_4_res>
 2e8:	00000813          	li	a6,0
 2ec:	40185793          	srai	a5,a6,0x1
 2f0:	00f12023          	sw	a5,0(sp)
 2f4:	fff00793          	li	a5,-1
 2f8:	4007d813          	srai	a6,a5,0x0
 2fc:	01012223          	sw	a6,4(sp)
 300:	00100713          	li	a4,1
 304:	40075893          	srai	a7,a4,0x0
 308:	01112423          	sw	a7,8(sp)
 30c:	00000693          	li	a3,0
 310:	4016d913          	srai	s2,a3,0x1
 314:	01212623          	sw	s2,12(sp)
 318:	7ff00613          	li	a2,2047
 31c:	40465993          	srai	s3,a2,0x4
 320:	01312823          	sw	s3,16(sp)
 324:	00006097          	auipc	ra,0x6
 328:	d2c08093          	addi	ra,ra,-724 # 6050 <test_5_res>
 32c:	00000593          	li	a1,0
 330:	4085da13          	srai	s4,a1,0x8
 334:	0140a023          	sw	s4,0(ra)
 338:	00001537          	lui	a0,0x1
 33c:	80050513          	addi	a0,a0,-2048 # 800 <_tls_data+0x41c>
 340:	41f55a93          	srai	s5,a0,0x1f
 344:	0150a223          	sw	s5,4(ra)
 348:	076544b7          	lui	s1,0x7654
 34c:	32148493          	addi	s1,s1,801 # 7654321 <_end+0x764e291>
 350:	4104db13          	srai	s6,s1,0x10
 354:	0160a423          	sw	s6,8(ra)
 358:	80000437          	lui	s0,0x80000
 35c:	fff40413          	addi	s0,s0,-1 # 7fffffff <_end+0x7fff9f6f>
 360:	40145b93          	srai	s7,s0,0x1
 364:	0170a623          	sw	s7,12(ra)
 368:	00100393          	li	t2,1
 36c:	4003dc13          	srai	s8,t2,0x0
 370:	0180a823          	sw	s8,16(ra)
 374:	00006097          	auipc	ra,0x6
 378:	cf008093          	addi	ra,ra,-784 # 6064 <test_6_res>
 37c:	fff00313          	li	t1,-1
 380:	40035c93          	srai	s9,t1,0x0
 384:	0190a023          	sw	s9,0(ra)
 388:	000012b7          	lui	t0,0x1
 38c:	23428293          	addi	t0,t0,564 # 1234 <__global_pointer$+0x650>
 390:	4012dd13          	srai	s10,t0,0x1
 394:	01a0a223          	sw	s10,4(ra)
 398:	80000237          	lui	tp,0x80000
 39c:	40425d93          	srai	s11,tp,0x4
 3a0:	01b0a423          	sw	s11,8(ra)
 3a4:	fffff1b7          	lui	gp,0xfffff
 3a8:	dcc18193          	addi	gp,gp,-564 # ffffedcc <_end+0xffff8d3c>
 3ac:	4081de13          	srai	t3,gp,0x8
 3b0:	01c0a623          	sw	t3,12(ra)
 3b4:	fff00113          	li	sp,-1
 3b8:	41f15e93          	srai	t4,sp,0x1f
 3bc:	01d0a823          	sw	t4,16(ra)
 3c0:	00006117          	auipc	sp,0x6
 3c4:	cb810113          	addi	sp,sp,-840 # 6078 <test_7_res>
 3c8:	80100093          	li	ra,-2047
 3cc:	4100df13          	srai	t5,ra,0x10
 3d0:	01e12023          	sw	t5,0(sp)
 3d4:	00000013          	nop
 3d8:	40105f93          	srai	t6,zero,0x1
 3dc:	01f12223          	sw	t6,4(sp)

000003e0 <halt>:
 3e0:	0000006f          	j	3e0 <halt>

Disassembly of section .io_buf:

00006000 <codasip_signature_start>:
    6000:	ffff                	0xffff
    6002:	ffff                	0xffff
    6004:	ffff                	0xffff
    6006:	ffff                	0xffff
    6008:	ffff                	0xffff
    600a:	ffff                	0xffff
    600c:	ffff                	0xffff
    600e:	ffff                	0xffff
    6010:	ffff                	0xffff
    6012:	ffff                	0xffff

00006014 <test_2_res>:
    6014:	ffff                	0xffff
    6016:	ffff                	0xffff
    6018:	ffff                	0xffff
    601a:	ffff                	0xffff
    601c:	ffff                	0xffff
    601e:	ffff                	0xffff
    6020:	ffff                	0xffff
    6022:	ffff                	0xffff
    6024:	ffff                	0xffff
    6026:	ffff                	0xffff

00006028 <test_3_res>:
    6028:	ffff                	0xffff
    602a:	ffff                	0xffff
    602c:	ffff                	0xffff
    602e:	ffff                	0xffff
    6030:	ffff                	0xffff
    6032:	ffff                	0xffff
    6034:	ffff                	0xffff
    6036:	ffff                	0xffff
    6038:	ffff                	0xffff
    603a:	ffff                	0xffff

0000603c <test_4_res>:
    603c:	ffff                	0xffff
    603e:	ffff                	0xffff
    6040:	ffff                	0xffff
    6042:	ffff                	0xffff
    6044:	ffff                	0xffff
    6046:	ffff                	0xffff
    6048:	ffff                	0xffff
    604a:	ffff                	0xffff
    604c:	ffff                	0xffff
    604e:	ffff                	0xffff

00006050 <test_5_res>:
    6050:	ffff                	0xffff
    6052:	ffff                	0xffff
    6054:	ffff                	0xffff
    6056:	ffff                	0xffff
    6058:	ffff                	0xffff
    605a:	ffff                	0xffff
    605c:	ffff                	0xffff
    605e:	ffff                	0xffff
    6060:	ffff                	0xffff
    6062:	ffff                	0xffff

00006064 <test_6_res>:
    6064:	ffff                	0xffff
    6066:	ffff                	0xffff
    6068:	ffff                	0xffff
    606a:	ffff                	0xffff
    606c:	ffff                	0xffff
    606e:	ffff                	0xffff
    6070:	ffff                	0xffff
    6072:	ffff                	0xffff
    6074:	ffff                	0xffff
    6076:	ffff                	0xffff

00006078 <test_7_res>:
    6078:	ffff                	0xffff
    607a:	ffff                	0xffff
    607c:	ffff                	0xffff
    607e:	ffff                	0xffff
    6080:	ffff                	0xffff
    6082:	ffff                	0xffff
    6084:	ffff                	0xffff
    6086:	ffff                	0xffff
    6088:	ffff                	0xffff
    608a:	ffff                	0xffff
    608c:	0000                	unimp
    608e:	0000                	unimp
