
crc32.riscv:     file format elf32-littleriscv

Sections:
Idx Name          Size      VMA       LMA       File off  Algn
  0 .text.isr     00000104  00000080  00000080  00000080  2**0
                  CONTENTS, ALLOC, LOAD, READONLY, CODE
  1 .text.init    000000a4  00000200  00000200  00000200  2**0
                  CONTENTS, ALLOC, LOAD, READONLY, CODE
  2 .text         000002dc  000002a4  000002a4  000002a4  2**2
                  CONTENTS, ALLOC, LOAD, READONLY, CODE
  3 .text.startup 00000024  00000580  00000580  00000580  2**2
                  CONTENTS, ALLOC, LOAD, READONLY, CODE
  4 .rodata       00000400  000005a4  000005a4  000005a4  2**2
                  CONTENTS, ALLOC, LOAD, READONLY, DATA
  5 .data         0000004c  000009a4  000009a4  000009a4  2**2
                  CONTENTS, ALLOC, LOAD, DATA
  6 .comment      00000028  00000000  00000000  000009f0  2**0
                  CONTENTS, READONLY
  7 .riscv.attributes 0000001c  00000000  00000000  00000a18  2**0
                  CONTENTS, READONLY

Disassembly of section .text.isr:

00000080 <isr_entry>:
  80:	00112023          	sw	ra,0(sp)
  84:	fe312e23          	sw	gp,-4(sp)
  88:	fe412c23          	sw	tp,-8(sp)
  8c:	fe512a23          	sw	t0,-12(sp)
  90:	fe612823          	sw	t1,-16(sp)
  94:	fe712623          	sw	t2,-20(sp)
  98:	fe812423          	sw	s0,-24(sp)
  9c:	fe912223          	sw	s1,-28(sp)
  a0:	fea12023          	sw	a0,-32(sp)
  a4:	fcb12e23          	sw	a1,-36(sp)
  a8:	fcc12c23          	sw	a2,-40(sp)
  ac:	fcd12a23          	sw	a3,-44(sp)
  b0:	fce12823          	sw	a4,-48(sp)
  b4:	fcf12623          	sw	a5,-52(sp)
  b8:	fd012423          	sw	a6,-56(sp)
  bc:	fd112223          	sw	a7,-60(sp)
  c0:	fd212023          	sw	s2,-64(sp)
  c4:	fb312e23          	sw	s3,-68(sp)
  c8:	fb412c23          	sw	s4,-72(sp)
  cc:	fb512a23          	sw	s5,-76(sp)
  d0:	fb612823          	sw	s6,-80(sp)
  d4:	fb712623          	sw	s7,-84(sp)
  d8:	fb812423          	sw	s8,-88(sp)
  dc:	fb912223          	sw	s9,-92(sp)
  e0:	fba12023          	sw	s10,-96(sp)
  e4:	f9b12e23          	sw	s11,-100(sp)
  e8:	f9c12c23          	sw	t3,-104(sp)
  ec:	f9d12a23          	sw	t4,-108(sp)
  f0:	f9e12823          	sw	t5,-112(sp)
  f4:	f9f12623          	sw	t6,-116(sp)
  f8:	f8010113          	addi	sp,sp,-128
  fc:	00002573          	csrr	a0,ustatus
 100:	428000ef          	jal	ra,528 <__int_handler>
 104:	08010113          	addi	sp,sp,128
 108:	00012083          	lw	ra,0(sp)
 10c:	ffc12183          	lw	gp,-4(sp)
 110:	ff812203          	lw	tp,-8(sp)
 114:	ff412283          	lw	t0,-12(sp)
 118:	ff012303          	lw	t1,-16(sp)
 11c:	fec12383          	lw	t2,-20(sp)
 120:	fe812403          	lw	s0,-24(sp)
 124:	fe412483          	lw	s1,-28(sp)
 128:	fe012503          	lw	a0,-32(sp)
 12c:	fdc12583          	lw	a1,-36(sp)
 130:	fd812603          	lw	a2,-40(sp)
 134:	fd412683          	lw	a3,-44(sp)
 138:	fd012703          	lw	a4,-48(sp)
 13c:	fcc12783          	lw	a5,-52(sp)
 140:	fc812803          	lw	a6,-56(sp)
 144:	fc412883          	lw	a7,-60(sp)
 148:	fc012903          	lw	s2,-64(sp)
 14c:	fbc12983          	lw	s3,-68(sp)
 150:	fb812a03          	lw	s4,-72(sp)
 154:	fb412a83          	lw	s5,-76(sp)
 158:	fb012b03          	lw	s6,-80(sp)
 15c:	fac12b83          	lw	s7,-84(sp)
 160:	fa812c03          	lw	s8,-88(sp)
 164:	fa412c83          	lw	s9,-92(sp)
 168:	fa012d03          	lw	s10,-96(sp)
 16c:	f9c12d83          	lw	s11,-100(sp)
 170:	f9812e03          	lw	t3,-104(sp)
 174:	f9412e83          	lw	t4,-108(sp)
 178:	f9012f03          	lw	t5,-112(sp)
 17c:	f8c12f83          	lw	t6,-116(sp)
 180:	30200073          	mret

Disassembly of section .text.init:

00000200 <_start>:
 200:	00000093          	li	ra,0
 204:	00000113          	li	sp,0
 208:	00000193          	li	gp,0
 20c:	00000213          	li	tp,0
 210:	00000293          	li	t0,0
 214:	00000313          	li	t1,0
 218:	00000393          	li	t2,0
 21c:	00000413          	li	s0,0
 220:	00000493          	li	s1,0
 224:	00000513          	li	a0,0
 228:	00000593          	li	a1,0
 22c:	00000613          	li	a2,0
 230:	00000693          	li	a3,0
 234:	00000713          	li	a4,0
 238:	00000793          	li	a5,0
 23c:	00000813          	li	a6,0
 240:	00000893          	li	a7,0
 244:	00000913          	li	s2,0
 248:	00000993          	li	s3,0
 24c:	00000a13          	li	s4,0
 250:	00000a93          	li	s5,0
 254:	00000b13          	li	s6,0
 258:	00000b93          	li	s7,0
 25c:	00000c13          	li	s8,0
 260:	00000c93          	li	s9,0
 264:	00000d13          	li	s10,0
 268:	00000d93          	li	s11,0
 26c:	00000e13          	li	t3,0
 270:	00000e93          	li	t4,0
 274:	00000f13          	li	t5,0
 278:	00000f93          	li	t6,0
 27c:	00001197          	auipc	gp,0x1
 280:	f7418193          	addi	gp,gp,-140 # 11f0 <__global_pointer$>
 284:	83f18213          	addi	tp,gp,-1985 # a2f <_end+0x3f>
 288:	fc027213          	andi	tp,tp,-64
 28c:	00e51613          	slli	a2,a0,0xe
 290:	00c20233          	add	tp,tp,a2
 294:	00150113          	addi	sp,a0,1
 298:	00e11113          	slli	sp,sp,0xe
 29c:	00410133          	add	sp,sp,tp
 2a0:	2e00006f          	j	580 <main>

Disassembly of section .text:

000002a4 <crc32>:
 2a4:	c0010113          	addi	sp,sp,-1024
 2a8:	5a400793          	li	a5,1444
 2ac:	00010713          	mv	a4,sp
 2b0:	00000317          	auipc	t1,0x0
 2b4:	6f430313          	addi	t1,t1,1780 # 9a4 <INPUT>
 2b8:	0007a883          	lw	a7,0(a5)
 2bc:	0047a803          	lw	a6,4(a5)
 2c0:	0087a603          	lw	a2,8(a5)
 2c4:	00c7a683          	lw	a3,12(a5)
 2c8:	01172023          	sw	a7,0(a4)
 2cc:	01072223          	sw	a6,4(a4)
 2d0:	00c72423          	sw	a2,8(a4)
 2d4:	00d72623          	sw	a3,12(a4)
 2d8:	01078793          	addi	a5,a5,16
 2dc:	01070713          	addi	a4,a4,16
 2e0:	fc679ce3          	bne	a5,t1,2b8 <crc32+0x14>
 2e4:	04b05463          	blez	a1,32c <crc32+0x88>
 2e8:	00259593          	slli	a1,a1,0x2
 2ec:	00b505b3          	add	a1,a0,a1
 2f0:	fff00793          	li	a5,-1
 2f4:	00052683          	lw	a3,0(a0)
 2f8:	0087d713          	srli	a4,a5,0x8
 2fc:	00450513          	addi	a0,a0,4
 300:	00d7c7b3          	xor	a5,a5,a3
 304:	0ff7f793          	andi	a5,a5,255
 308:	00279793          	slli	a5,a5,0x2
 30c:	40010693          	addi	a3,sp,1024
 310:	00f687b3          	add	a5,a3,a5
 314:	c007a783          	lw	a5,-1024(a5)
 318:	00e7c7b3          	xor	a5,a5,a4
 31c:	fca59ce3          	bne	a1,a0,2f4 <crc32+0x50>
 320:	fff7c513          	not	a0,a5
 324:	40010113          	addi	sp,sp,1024
 328:	00008067          	ret
 32c:	00000513          	li	a0,0
 330:	40010113          	addi	sp,sp,1024
 334:	00008067          	ret

00000338 <memcpy>:
 338:	00c5e7b3          	or	a5,a1,a2
 33c:	00f567b3          	or	a5,a0,a5
 340:	0037f793          	andi	a5,a5,3
 344:	00c506b3          	add	a3,a0,a2
 348:	02078463          	beqz	a5,370 <memcpy+0x38>
 34c:	00c58633          	add	a2,a1,a2
 350:	00050793          	mv	a5,a0
 354:	02d57e63          	bgeu	a0,a3,390 <memcpy+0x58>
 358:	00158593          	addi	a1,a1,1
 35c:	fff5c703          	lbu	a4,-1(a1)
 360:	00178793          	addi	a5,a5,1
 364:	fee78fa3          	sb	a4,-1(a5)
 368:	feb618e3          	bne	a2,a1,358 <memcpy+0x20>
 36c:	00008067          	ret
 370:	fed57ee3          	bgeu	a0,a3,36c <memcpy+0x34>
 374:	00050793          	mv	a5,a0
 378:	00458593          	addi	a1,a1,4
 37c:	ffc5a703          	lw	a4,-4(a1)
 380:	00478793          	addi	a5,a5,4
 384:	fee7ae23          	sw	a4,-4(a5)
 388:	fed7e8e3          	bltu	a5,a3,378 <memcpy+0x40>
 38c:	00008067          	ret
 390:	00008067          	ret

00000394 <memset>:
 394:	00c567b3          	or	a5,a0,a2
 398:	0037f793          	andi	a5,a5,3
 39c:	00c50633          	add	a2,a0,a2
 3a0:	02078063          	beqz	a5,3c0 <memset+0x2c>
 3a4:	0ff5f593          	andi	a1,a1,255
 3a8:	00050793          	mv	a5,a0
 3ac:	04c57063          	bgeu	a0,a2,3ec <memset+0x58>
 3b0:	00178793          	addi	a5,a5,1
 3b4:	feb78fa3          	sb	a1,-1(a5)
 3b8:	fef61ce3          	bne	a2,a5,3b0 <memset+0x1c>
 3bc:	00008067          	ret
 3c0:	0ff5f593          	andi	a1,a1,255
 3c4:	00859793          	slli	a5,a1,0x8
 3c8:	00b7e7b3          	or	a5,a5,a1
 3cc:	01079593          	slli	a1,a5,0x10
 3d0:	00f5e5b3          	or	a1,a1,a5
 3d4:	fec574e3          	bgeu	a0,a2,3bc <memset+0x28>
 3d8:	00050793          	mv	a5,a0
 3dc:	00478793          	addi	a5,a5,4
 3e0:	feb7ae23          	sw	a1,-4(a5)
 3e4:	fec7ece3          	bltu	a5,a2,3dc <memset+0x48>
 3e8:	00008067          	ret
 3ec:	00008067          	ret

000003f0 <strlen>:
 3f0:	00054783          	lbu	a5,0(a0)
 3f4:	00078e63          	beqz	a5,410 <strlen+0x20>
 3f8:	00050793          	mv	a5,a0
 3fc:	00178793          	addi	a5,a5,1
 400:	0007c703          	lbu	a4,0(a5)
 404:	fe071ce3          	bnez	a4,3fc <strlen+0xc>
 408:	40a78533          	sub	a0,a5,a0
 40c:	00008067          	ret
 410:	00000513          	li	a0,0
 414:	00008067          	ret

00000418 <strnlen>:
 418:	02058463          	beqz	a1,440 <strnlen+0x28>
 41c:	00054783          	lbu	a5,0(a0)
 420:	02078a63          	beqz	a5,454 <strnlen+0x3c>
 424:	00b506b3          	add	a3,a0,a1
 428:	00050793          	mv	a5,a0
 42c:	00c0006f          	j	438 <strnlen+0x20>
 430:	0007c703          	lbu	a4,0(a5)
 434:	00070a63          	beqz	a4,448 <strnlen+0x30>
 438:	00178793          	addi	a5,a5,1
 43c:	fed79ae3          	bne	a5,a3,430 <strnlen+0x18>
 440:	00058513          	mv	a0,a1
 444:	00008067          	ret
 448:	40a785b3          	sub	a1,a5,a0
 44c:	00058513          	mv	a0,a1
 450:	00008067          	ret
 454:	00000593          	li	a1,0
 458:	fe9ff06f          	j	440 <strnlen+0x28>

0000045c <strcmp>:
 45c:	00150513          	addi	a0,a0,1
 460:	fff54783          	lbu	a5,-1(a0)
 464:	00158593          	addi	a1,a1,1
 468:	fff5c703          	lbu	a4,-1(a1)
 46c:	00078863          	beqz	a5,47c <strcmp+0x20>
 470:	fee786e3          	beq	a5,a4,45c <strcmp>
 474:	40e78533          	sub	a0,a5,a4
 478:	00008067          	ret
 47c:	00000793          	li	a5,0
 480:	ff5ff06f          	j	474 <strcmp+0x18>

00000484 <strcpy>:
 484:	00050793          	mv	a5,a0
 488:	00158593          	addi	a1,a1,1
 48c:	fff5c703          	lbu	a4,-1(a1)
 490:	00178793          	addi	a5,a5,1
 494:	fee78fa3          	sb	a4,-1(a5)
 498:	fe0718e3          	bnez	a4,488 <strcpy+0x4>
 49c:	00008067          	ret

000004a0 <atol>:
 4a0:	00054783          	lbu	a5,0(a0)
 4a4:	02000713          	li	a4,32
 4a8:	00e79863          	bne	a5,a4,4b8 <atol+0x18>
 4ac:	00150513          	addi	a0,a0,1
 4b0:	00054783          	lbu	a5,0(a0)
 4b4:	fee78ce3          	beq	a5,a4,4ac <atol+0xc>
 4b8:	fd578713          	addi	a4,a5,-43
 4bc:	0fd77713          	andi	a4,a4,253
 4c0:	04070263          	beqz	a4,504 <atol+0x64>
 4c4:	00054683          	lbu	a3,0(a0)
 4c8:	00050793          	mv	a5,a0
 4cc:	00000613          	li	a2,0
 4d0:	04068863          	beqz	a3,520 <atol+0x80>
 4d4:	00000513          	li	a0,0
 4d8:	00178793          	addi	a5,a5,1
 4dc:	fd068593          	addi	a1,a3,-48
 4e0:	00251713          	slli	a4,a0,0x2
 4e4:	0007c683          	lbu	a3,0(a5)
 4e8:	00a70533          	add	a0,a4,a0
 4ec:	00151513          	slli	a0,a0,0x1
 4f0:	00a58533          	add	a0,a1,a0
 4f4:	fe0692e3          	bnez	a3,4d8 <atol+0x38>
 4f8:	00060463          	beqz	a2,500 <atol+0x60>
 4fc:	40a00533          	neg	a0,a0
 500:	00008067          	ret
 504:	00154683          	lbu	a3,1(a0)
 508:	fd378793          	addi	a5,a5,-45
 50c:	0017b613          	seqz	a2,a5
 510:	00150793          	addi	a5,a0,1
 514:	fc0690e3          	bnez	a3,4d4 <atol+0x34>
 518:	00000513          	li	a0,0
 51c:	fddff06f          	j	4f8 <atol+0x58>
 520:	00000513          	li	a0,0
 524:	00008067          	ret

00000528 <__int_handler>:
 528:	00251693          	slli	a3,a0,0x2
 52c:	00000797          	auipc	a5,0x0
 530:	49c78793          	addi	a5,a5,1180 # 9c8 <isr>
 534:	00d787b3          	add	a5,a5,a3
 538:	0007a303          	lw	t1,0(a5)
 53c:	fff00793          	li	a5,-1
 540:	00f30863          	beq	t1,a5,550 <__int_handler+0x28>
 544:	00900793          	li	a5,9
 548:	00a7c463          	blt	a5,a0,550 <__int_handler+0x28>
 54c:	00030067          	jr	t1
 550:	00008067          	ret

00000554 <ConnectISR>:
 554:	00900793          	li	a5,9
 558:	02a7c063          	blt	a5,a0,578 <ConnectISR+0x24>
 55c:	00000797          	auipc	a5,0x0
 560:	46c78793          	addi	a5,a5,1132 # 9c8 <isr>
 564:	00251513          	slli	a0,a0,0x2
 568:	00a78533          	add	a0,a5,a0
 56c:	00b52023          	sw	a1,0(a0)
 570:	00000513          	li	a0,0
 574:	00008067          	ret
 578:	fff00513          	li	a0,-1
 57c:	00008067          	ret

Disassembly of section .text.startup:

00000580 <main>:
 580:	ff010113          	addi	sp,sp,-16
 584:	00900593          	li	a1,9
 588:	00000517          	auipc	a0,0x0
 58c:	41c50513          	addi	a0,a0,1052 # 9a4 <INPUT>
 590:	00112623          	sw	ra,12(sp)
 594:	d11ff0ef          	jal	ra,2a4 <crc32>
 598:	800007b7          	lui	a5,0x80000
 59c:	00a7a023          	sw	a0,0(a5) # 80000000 <__global_pointer$+0x7fffee10>
 5a0:	0000006f          	j	5a0 <main+0x20>
